ARM GAS  C:\Users\katre\AppData\Local\Temp\ccDjtmAv.s 			page 1


   1              		.cpu cortex-m4
   2              		.arch armv7e-m
   3              		.fpu fpv4-sp-d16
   4              		.eabi_attribute 27, 1
   5              		.eabi_attribute 28, 1
   6              		.eabi_attribute 20, 1
   7              		.eabi_attribute 21, 1
   8              		.eabi_attribute 23, 3
   9              		.eabi_attribute 24, 1
  10              		.eabi_attribute 25, 1
  11              		.eabi_attribute 26, 1
  12              		.eabi_attribute 30, 1
  13              		.eabi_attribute 34, 1
  14              		.eabi_attribute 18, 4
  15              		.file	"gpio.c"
  16              		.text
  17              	.Ltext0:
  18              		.cfi_sections	.debug_frame
  19              		.section	.text.MX_GPIO_Init,"ax",%progbits
  20              		.align	1
  21              		.global	MX_GPIO_Init
  22              		.syntax unified
  23              		.thumb
  24              		.thumb_func
  26              	MX_GPIO_Init:
  27              	.LFB130:
  28              		.file 1 "Core/Src/gpio.c"
   1:Core/Src/gpio.c **** /* USER CODE BEGIN Header */
   2:Core/Src/gpio.c **** /**
   3:Core/Src/gpio.c ****   ******************************************************************************
   4:Core/Src/gpio.c ****   * @file    gpio.c
   5:Core/Src/gpio.c ****   * @brief   This file provides code for the configuration
   6:Core/Src/gpio.c ****   *          of all used GPIO pins.
   7:Core/Src/gpio.c ****   ******************************************************************************
   8:Core/Src/gpio.c ****   * @attention
   9:Core/Src/gpio.c ****   *
  10:Core/Src/gpio.c ****   * Copyright (c) 2025 STMicroelectronics.
  11:Core/Src/gpio.c ****   * All rights reserved.
  12:Core/Src/gpio.c ****   *
  13:Core/Src/gpio.c ****   * This software is licensed under terms that can be found in the LICENSE file
  14:Core/Src/gpio.c ****   * in the root directory of this software component.
  15:Core/Src/gpio.c ****   * If no LICENSE file comes with this software, it is provided AS-IS.
  16:Core/Src/gpio.c ****   *
  17:Core/Src/gpio.c ****   ******************************************************************************
  18:Core/Src/gpio.c ****   */
  19:Core/Src/gpio.c **** /* USER CODE END Header */
  20:Core/Src/gpio.c **** 
  21:Core/Src/gpio.c **** /* Includes ------------------------------------------------------------------*/
  22:Core/Src/gpio.c **** #include "gpio.h"
  23:Core/Src/gpio.c **** 
  24:Core/Src/gpio.c **** /* USER CODE BEGIN 0 */
  25:Core/Src/gpio.c **** 
  26:Core/Src/gpio.c **** /* USER CODE END 0 */
  27:Core/Src/gpio.c **** 
  28:Core/Src/gpio.c **** /*----------------------------------------------------------------------------*/
  29:Core/Src/gpio.c **** /* Configure GPIO                                                             */
  30:Core/Src/gpio.c **** /*----------------------------------------------------------------------------*/
ARM GAS  C:\Users\katre\AppData\Local\Temp\ccDjtmAv.s 			page 2


  31:Core/Src/gpio.c **** /* USER CODE BEGIN 1 */
  32:Core/Src/gpio.c **** 
  33:Core/Src/gpio.c **** /* USER CODE END 1 */
  34:Core/Src/gpio.c **** 
  35:Core/Src/gpio.c **** /** Configure pins as
  36:Core/Src/gpio.c ****         * Analog
  37:Core/Src/gpio.c ****         * Input
  38:Core/Src/gpio.c ****         * Output
  39:Core/Src/gpio.c ****         * EVENT_OUT
  40:Core/Src/gpio.c ****         * EXTI
  41:Core/Src/gpio.c ****         * Free pins are configured automatically as Analog (this feature is enabled through
  42:Core/Src/gpio.c ****         * the Code Generation settings)
  43:Core/Src/gpio.c **** */
  44:Core/Src/gpio.c **** void MX_GPIO_Init(void)
  45:Core/Src/gpio.c **** {
  29              		.loc 1 45 1 view -0
  30              		.cfi_startproc
  31              		@ args = 0, pretend = 0, frame = 40
  32              		@ frame_needed = 0, uses_anonymous_args = 0
  33 0000 70B5     		push	{r4, r5, r6, lr}
  34              	.LCFI0:
  35              		.cfi_def_cfa_offset 16
  36              		.cfi_offset 4, -16
  37              		.cfi_offset 5, -12
  38              		.cfi_offset 6, -8
  39              		.cfi_offset 14, -4
  40 0002 8AB0     		sub	sp, sp, #40
  41              	.LCFI1:
  42              		.cfi_def_cfa_offset 56
  46:Core/Src/gpio.c **** 
  47:Core/Src/gpio.c ****   GPIO_InitTypeDef GPIO_InitStruct = {0};
  43              		.loc 1 47 3 view .LVU1
  44              		.loc 1 47 20 is_stmt 0 view .LVU2
  45 0004 0024     		movs	r4, #0
  46 0006 0594     		str	r4, [sp, #20]
  47 0008 0694     		str	r4, [sp, #24]
  48 000a 0794     		str	r4, [sp, #28]
  49 000c 0894     		str	r4, [sp, #32]
  50 000e 0994     		str	r4, [sp, #36]
  48:Core/Src/gpio.c **** 
  49:Core/Src/gpio.c ****   /* GPIO Ports Clock Enable */
  50:Core/Src/gpio.c ****   __HAL_RCC_GPIOC_CLK_ENABLE();
  51              		.loc 1 50 3 is_stmt 1 view .LVU3
  52              	.LBB2:
  53              		.loc 1 50 3 view .LVU4
  54 0010 0094     		str	r4, [sp]
  55              		.loc 1 50 3 view .LVU5
  56 0012 344B     		ldr	r3, .L3
  57 0014 1A6B     		ldr	r2, [r3, #48]
  58 0016 42F00402 		orr	r2, r2, #4
  59 001a 1A63     		str	r2, [r3, #48]
  60              		.loc 1 50 3 view .LVU6
  61 001c 1A6B     		ldr	r2, [r3, #48]
  62 001e 02F00402 		and	r2, r2, #4
  63 0022 0092     		str	r2, [sp]
  64              		.loc 1 50 3 view .LVU7
  65 0024 009A     		ldr	r2, [sp]
ARM GAS  C:\Users\katre\AppData\Local\Temp\ccDjtmAv.s 			page 3


  66              	.LBE2:
  67              		.loc 1 50 3 view .LVU8
  51:Core/Src/gpio.c ****   __HAL_RCC_GPIOH_CLK_ENABLE();
  68              		.loc 1 51 3 view .LVU9
  69              	.LBB3:
  70              		.loc 1 51 3 view .LVU10
  71 0026 0194     		str	r4, [sp, #4]
  72              		.loc 1 51 3 view .LVU11
  73 0028 1A6B     		ldr	r2, [r3, #48]
  74 002a 42F08002 		orr	r2, r2, #128
  75 002e 1A63     		str	r2, [r3, #48]
  76              		.loc 1 51 3 view .LVU12
  77 0030 1A6B     		ldr	r2, [r3, #48]
  78 0032 02F08002 		and	r2, r2, #128
  79 0036 0192     		str	r2, [sp, #4]
  80              		.loc 1 51 3 view .LVU13
  81 0038 019A     		ldr	r2, [sp, #4]
  82              	.LBE3:
  83              		.loc 1 51 3 view .LVU14
  52:Core/Src/gpio.c ****   __HAL_RCC_GPIOA_CLK_ENABLE();
  84              		.loc 1 52 3 view .LVU15
  85              	.LBB4:
  86              		.loc 1 52 3 view .LVU16
  87 003a 0294     		str	r4, [sp, #8]
  88              		.loc 1 52 3 view .LVU17
  89 003c 1A6B     		ldr	r2, [r3, #48]
  90 003e 42F00102 		orr	r2, r2, #1
  91 0042 1A63     		str	r2, [r3, #48]
  92              		.loc 1 52 3 view .LVU18
  93 0044 1A6B     		ldr	r2, [r3, #48]
  94 0046 02F00102 		and	r2, r2, #1
  95 004a 0292     		str	r2, [sp, #8]
  96              		.loc 1 52 3 view .LVU19
  97 004c 029A     		ldr	r2, [sp, #8]
  98              	.LBE4:
  99              		.loc 1 52 3 view .LVU20
  53:Core/Src/gpio.c ****   __HAL_RCC_GPIOB_CLK_ENABLE();
 100              		.loc 1 53 3 view .LVU21
 101              	.LBB5:
 102              		.loc 1 53 3 view .LVU22
 103 004e 0394     		str	r4, [sp, #12]
 104              		.loc 1 53 3 view .LVU23
 105 0050 1A6B     		ldr	r2, [r3, #48]
 106 0052 42F00202 		orr	r2, r2, #2
 107 0056 1A63     		str	r2, [r3, #48]
 108              		.loc 1 53 3 view .LVU24
 109 0058 1A6B     		ldr	r2, [r3, #48]
 110 005a 02F00202 		and	r2, r2, #2
 111 005e 0392     		str	r2, [sp, #12]
 112              		.loc 1 53 3 view .LVU25
 113 0060 039A     		ldr	r2, [sp, #12]
 114              	.LBE5:
 115              		.loc 1 53 3 view .LVU26
  54:Core/Src/gpio.c ****   __HAL_RCC_GPIOD_CLK_ENABLE();
 116              		.loc 1 54 3 view .LVU27
 117              	.LBB6:
 118              		.loc 1 54 3 view .LVU28
ARM GAS  C:\Users\katre\AppData\Local\Temp\ccDjtmAv.s 			page 4


 119 0062 0494     		str	r4, [sp, #16]
 120              		.loc 1 54 3 view .LVU29
 121 0064 1A6B     		ldr	r2, [r3, #48]
 122 0066 42F00802 		orr	r2, r2, #8
 123 006a 1A63     		str	r2, [r3, #48]
 124              		.loc 1 54 3 view .LVU30
 125 006c 1B6B     		ldr	r3, [r3, #48]
 126 006e 03F00803 		and	r3, r3, #8
 127 0072 0493     		str	r3, [sp, #16]
 128              		.loc 1 54 3 view .LVU31
 129 0074 049B     		ldr	r3, [sp, #16]
 130              	.LBE6:
 131              		.loc 1 54 3 view .LVU32
  55:Core/Src/gpio.c **** 
  56:Core/Src/gpio.c ****   /*Configure GPIO pin Output Level */
  57:Core/Src/gpio.c ****   HAL_GPIO_WritePin(User_Led_GPIO_Port, User_Led_Pin, GPIO_PIN_RESET);
 132              		.loc 1 57 3 view .LVU33
 133 0076 1C4E     		ldr	r6, .L3+4
 134 0078 2246     		mov	r2, r4
 135 007a 0221     		movs	r1, #2
 136 007c 3046     		mov	r0, r6
 137 007e FFF7FEFF 		bl	HAL_GPIO_WritePin
 138              	.LVL0:
  58:Core/Src/gpio.c **** 
  59:Core/Src/gpio.c ****   /*Configure GPIO pins : PC13 PC14 PC15 PC0
  60:Core/Src/gpio.c ****                            PC2 PC3 PC4 PC5
  61:Core/Src/gpio.c ****                            PC6 PC7 PC8 PC9
  62:Core/Src/gpio.c ****                            PC10 PC11 PC12 */
  63:Core/Src/gpio.c ****   GPIO_InitStruct.Pin = GPIO_PIN_13|GPIO_PIN_14|GPIO_PIN_15|GPIO_PIN_0
 139              		.loc 1 63 3 view .LVU34
 140              		.loc 1 63 23 is_stmt 0 view .LVU35
 141 0082 4FF6FD73 		movw	r3, #65533
 142 0086 0593     		str	r3, [sp, #20]
  64:Core/Src/gpio.c ****                           |GPIO_PIN_2|GPIO_PIN_3|GPIO_PIN_4|GPIO_PIN_5
  65:Core/Src/gpio.c ****                           |GPIO_PIN_6|GPIO_PIN_7|GPIO_PIN_8|GPIO_PIN_9
  66:Core/Src/gpio.c ****                           |GPIO_PIN_10|GPIO_PIN_11|GPIO_PIN_12;
  67:Core/Src/gpio.c ****   GPIO_InitStruct.Mode = GPIO_MODE_ANALOG;
 143              		.loc 1 67 3 is_stmt 1 view .LVU36
 144              		.loc 1 67 24 is_stmt 0 view .LVU37
 145 0088 0325     		movs	r5, #3
 146 008a 0695     		str	r5, [sp, #24]
  68:Core/Src/gpio.c ****   GPIO_InitStruct.Pull = GPIO_NOPULL;
 147              		.loc 1 68 3 is_stmt 1 view .LVU38
 148              		.loc 1 68 24 is_stmt 0 view .LVU39
 149 008c 0794     		str	r4, [sp, #28]
  69:Core/Src/gpio.c ****   HAL_GPIO_Init(GPIOC, &GPIO_InitStruct);
 150              		.loc 1 69 3 is_stmt 1 view .LVU40
 151 008e 05A9     		add	r1, sp, #20
 152 0090 3046     		mov	r0, r6
 153 0092 FFF7FEFF 		bl	HAL_GPIO_Init
 154              	.LVL1:
  70:Core/Src/gpio.c **** 
  71:Core/Src/gpio.c ****   /*Configure GPIO pin : User_Led_Pin */
  72:Core/Src/gpio.c ****   GPIO_InitStruct.Pin = User_Led_Pin;
 155              		.loc 1 72 3 view .LVU41
 156              		.loc 1 72 23 is_stmt 0 view .LVU42
 157 0096 0223     		movs	r3, #2
ARM GAS  C:\Users\katre\AppData\Local\Temp\ccDjtmAv.s 			page 5


 158 0098 0593     		str	r3, [sp, #20]
  73:Core/Src/gpio.c ****   GPIO_InitStruct.Mode = GPIO_MODE_OUTPUT_PP;
 159              		.loc 1 73 3 is_stmt 1 view .LVU43
 160              		.loc 1 73 24 is_stmt 0 view .LVU44
 161 009a 0123     		movs	r3, #1
 162 009c 0693     		str	r3, [sp, #24]
  74:Core/Src/gpio.c ****   GPIO_InitStruct.Pull = GPIO_NOPULL;
 163              		.loc 1 74 3 is_stmt 1 view .LVU45
 164              		.loc 1 74 24 is_stmt 0 view .LVU46
 165 009e 0794     		str	r4, [sp, #28]
  75:Core/Src/gpio.c ****   GPIO_InitStruct.Speed = GPIO_SPEED_FREQ_LOW;
 166              		.loc 1 75 3 is_stmt 1 view .LVU47
 167              		.loc 1 75 25 is_stmt 0 view .LVU48
 168 00a0 0894     		str	r4, [sp, #32]
  76:Core/Src/gpio.c ****   HAL_GPIO_Init(User_Led_GPIO_Port, &GPIO_InitStruct);
 169              		.loc 1 76 3 is_stmt 1 view .LVU49
 170 00a2 05A9     		add	r1, sp, #20
 171 00a4 3046     		mov	r0, r6
 172 00a6 FFF7FEFF 		bl	HAL_GPIO_Init
 173              	.LVL2:
  77:Core/Src/gpio.c **** 
  78:Core/Src/gpio.c ****   /*Configure GPIO pins : PA0 PA1 PA2 PA3
  79:Core/Src/gpio.c ****                            PA4 PA5 PA6 PA7
  80:Core/Src/gpio.c ****                            PA8 PA9 PA10 PA11
  81:Core/Src/gpio.c ****                            PA12 PA15 */
  82:Core/Src/gpio.c ****   GPIO_InitStruct.Pin = GPIO_PIN_0|GPIO_PIN_1|GPIO_PIN_2|GPIO_PIN_3
 174              		.loc 1 82 3 view .LVU50
 175              		.loc 1 82 23 is_stmt 0 view .LVU51
 176 00aa 49F6FF73 		movw	r3, #40959
 177 00ae 0593     		str	r3, [sp, #20]
  83:Core/Src/gpio.c ****                           |GPIO_PIN_4|GPIO_PIN_5|GPIO_PIN_6|GPIO_PIN_7
  84:Core/Src/gpio.c ****                           |GPIO_PIN_8|GPIO_PIN_9|GPIO_PIN_10|GPIO_PIN_11
  85:Core/Src/gpio.c ****                           |GPIO_PIN_12|GPIO_PIN_15;
  86:Core/Src/gpio.c ****   GPIO_InitStruct.Mode = GPIO_MODE_ANALOG;
 178              		.loc 1 86 3 is_stmt 1 view .LVU52
 179              		.loc 1 86 24 is_stmt 0 view .LVU53
 180 00b0 0695     		str	r5, [sp, #24]
  87:Core/Src/gpio.c ****   GPIO_InitStruct.Pull = GPIO_NOPULL;
 181              		.loc 1 87 3 is_stmt 1 view .LVU54
 182              		.loc 1 87 24 is_stmt 0 view .LVU55
 183 00b2 0794     		str	r4, [sp, #28]
  88:Core/Src/gpio.c ****   HAL_GPIO_Init(GPIOA, &GPIO_InitStruct);
 184              		.loc 1 88 3 is_stmt 1 view .LVU56
 185 00b4 05A9     		add	r1, sp, #20
 186 00b6 0D48     		ldr	r0, .L3+8
 187 00b8 FFF7FEFF 		bl	HAL_GPIO_Init
 188              	.LVL3:
  89:Core/Src/gpio.c **** 
  90:Core/Src/gpio.c ****   /*Configure GPIO pins : PB0 PB1 PB2 PB10
  91:Core/Src/gpio.c ****                            PB12 PB13 PB14 PB15
  92:Core/Src/gpio.c ****                            PB3 PB4 PB5 PB6
  93:Core/Src/gpio.c ****                            PB7 PB8 PB9 */
  94:Core/Src/gpio.c ****   GPIO_InitStruct.Pin = GPIO_PIN_0|GPIO_PIN_1|GPIO_PIN_2|GPIO_PIN_10
 189              		.loc 1 94 3 view .LVU57
 190              		.loc 1 94 23 is_stmt 0 view .LVU58
 191 00bc 4FF2FF73 		movw	r3, #63487
 192 00c0 0593     		str	r3, [sp, #20]
ARM GAS  C:\Users\katre\AppData\Local\Temp\ccDjtmAv.s 			page 6


  95:Core/Src/gpio.c ****                           |GPIO_PIN_12|GPIO_PIN_13|GPIO_PIN_14|GPIO_PIN_15
  96:Core/Src/gpio.c ****                           |GPIO_PIN_3|GPIO_PIN_4|GPIO_PIN_5|GPIO_PIN_6
  97:Core/Src/gpio.c ****                           |GPIO_PIN_7|GPIO_PIN_8|GPIO_PIN_9;
  98:Core/Src/gpio.c ****   GPIO_InitStruct.Mode = GPIO_MODE_ANALOG;
 193              		.loc 1 98 3 is_stmt 1 view .LVU59
 194              		.loc 1 98 24 is_stmt 0 view .LVU60
 195 00c2 0695     		str	r5, [sp, #24]
  99:Core/Src/gpio.c ****   GPIO_InitStruct.Pull = GPIO_NOPULL;
 196              		.loc 1 99 3 is_stmt 1 view .LVU61
 197              		.loc 1 99 24 is_stmt 0 view .LVU62
 198 00c4 0794     		str	r4, [sp, #28]
 100:Core/Src/gpio.c ****   HAL_GPIO_Init(GPIOB, &GPIO_InitStruct);
 199              		.loc 1 100 3 is_stmt 1 view .LVU63
 200 00c6 05A9     		add	r1, sp, #20
 201 00c8 0948     		ldr	r0, .L3+12
 202 00ca FFF7FEFF 		bl	HAL_GPIO_Init
 203              	.LVL4:
 101:Core/Src/gpio.c **** 
 102:Core/Src/gpio.c ****   /*Configure GPIO pin : PD2 */
 103:Core/Src/gpio.c ****   GPIO_InitStruct.Pin = GPIO_PIN_2;
 204              		.loc 1 103 3 view .LVU64
 205              		.loc 1 103 23 is_stmt 0 view .LVU65
 206 00ce 0423     		movs	r3, #4
 207 00d0 0593     		str	r3, [sp, #20]
 104:Core/Src/gpio.c ****   GPIO_InitStruct.Mode = GPIO_MODE_ANALOG;
 208              		.loc 1 104 3 is_stmt 1 view .LVU66
 209              		.loc 1 104 24 is_stmt 0 view .LVU67
 210 00d2 0695     		str	r5, [sp, #24]
 105:Core/Src/gpio.c ****   GPIO_InitStruct.Pull = GPIO_NOPULL;
 211              		.loc 1 105 3 is_stmt 1 view .LVU68
 212              		.loc 1 105 24 is_stmt 0 view .LVU69
 213 00d4 0794     		str	r4, [sp, #28]
 106:Core/Src/gpio.c ****   HAL_GPIO_Init(GPIOD, &GPIO_InitStruct);
 214              		.loc 1 106 3 is_stmt 1 view .LVU70
 215 00d6 05A9     		add	r1, sp, #20
 216 00d8 0648     		ldr	r0, .L3+16
 217 00da FFF7FEFF 		bl	HAL_GPIO_Init
 218              	.LVL5:
 107:Core/Src/gpio.c **** 
 108:Core/Src/gpio.c **** }
 219              		.loc 1 108 1 is_stmt 0 view .LVU71
 220 00de 0AB0     		add	sp, sp, #40
 221              	.LCFI2:
 222              		.cfi_def_cfa_offset 16
 223              		@ sp needed
 224 00e0 70BD     		pop	{r4, r5, r6, pc}
 225              	.L4:
 226 00e2 00BF     		.align	2
 227              	.L3:
 228 00e4 00380240 		.word	1073887232
 229 00e8 00080240 		.word	1073874944
 230 00ec 00000240 		.word	1073872896
 231 00f0 00040240 		.word	1073873920
 232 00f4 000C0240 		.word	1073875968
 233              		.cfi_endproc
 234              	.LFE130:
 236              		.text
ARM GAS  C:\Users\katre\AppData\Local\Temp\ccDjtmAv.s 			page 7


 237              	.Letext0:
 238              		.file 2 "c:\\program files (x86)\\gnu arm embedded toolchain\\10 2021.10\\arm-none-eabi\\include\\
 239              		.file 3 "c:\\program files (x86)\\gnu arm embedded toolchain\\10 2021.10\\arm-none-eabi\\include\\
 240              		.file 4 "Drivers/CMSIS/Device/ST/STM32F4xx/Include/stm32f446xx.h"
 241              		.file 5 "Drivers/STM32F4xx_HAL_Driver/Inc/stm32f4xx_hal_gpio.h"
ARM GAS  C:\Users\katre\AppData\Local\Temp\ccDjtmAv.s 			page 8

